Certificate:
    Data:
        Version: 3 (0x2)
        Serial Number: 1 (0x1)
    Signature Algorithm: sha256WithRSAEncryption
        Issuer: CN=devcert
        Validity
            Not Before: May  5 13:09:09 2020 GMT
            Not After : Aug  8 13:09:09 2022 GMT
        Subject: CN=localhost
        Subject Public Key Info:
            Public Key Algorithm: rsaEncryption
                Public-Key: (2048 bit)
                Modulus:
                    00:b6:ba:ca:1a:80:ea:90:ed:a7:a7:4c:2b:68:31:
                    22:cb:ae:da:ae:6a:b7:ed:eb:b9:fb:ce:c9:99:77:
                    6e:a9:67:9f:6d:f2:33:e1:2f:77:60:20:1b:45:08:
                    1e:77:85:12:3a:61:ea:85:b0:1c:77:6d:01:4d:34:
                    65:e1:07:54:82:31:6f:03:1b:c0:8e:f6:95:c7:e2:
                    48:95:ec:26:c5:20:50:81:17:8c:4d:c0:88:17:f0:
                    e6:00:7f:c8:1c:ef:fa:96:cc:7e:c1:13:ce:38:eb:
                    64:a9:2f:aa:44:bd:ee:39:a3:0a:9a:0e:33:7c:b2:
                    e6:b3:71:b3:44:1b:6e:64:16:63:53:46:d3:c6:18:
                    05:7a:c5:26:56:56:04:6b:4a:02:e9:5a:47:ac:04:
                    e1:ae:1b:4d:ee:9c:02:97:91:75:bf:96:70:22:50:
                    15:f2:61:a3:67:05:e7:5a:b6:ee:f1:c6:0f:50:85:
                    ff:9f:1e:44:70:19:6f:6b:c7:fb:64:33:04:ba:e2:
                    8d:b2:0e:17:6d:4b:96:d9:53:70:d4:c1:b1:21:bd:
                    ae:06:8e:03:9d:12:94:15:28:f8:a1:17:68:da:42:
                    f0:61:10:a2:20:f7:ef:bc:6e:78:f6:22:27:b0:9f:
                    b9:95:64:04:02:c3:d1:25:04:a7:1d:4a:17:35:b2:
                    de:39
                Exponent: 65537 (0x10001)
        X509v3 extensions:
            X509v3 Basic Constraints: critical
                CA:FALSE
            X509v3 Subject Key Identifier: 
                4D:1B:F8:C8:60:95:D7:E5:7A:30:D3:68:AB:86:09:E8:C5:4D:9A:DF
            X509v3 Authority Key Identifier: 
                keyid:CE:FC:DD:E0:CB:05:B2:81:AA:B6:21:0A:C5:AD:3A:E7:22:74:5D:7D
                DirName:/CN=devcert
                serial:EA:1B:95:D3:1A:1E:AC:6F

            X509v3 Key Usage: critical
                Digital Signature, Key Encipherment
            X509v3 Extended Key Usage: 
                TLS Web Server Authentication
            X509v3 Subject Alternative Name: 
                DNS:localhost, DNS:*.localhost
    Signature Algorithm: sha256WithRSAEncryption
         91:af:49:91:9d:0a:b1:3b:68:9a:80:6b:c3:9c:a7:a3:ed:c0:
         60:2a:d4:3d:89:db:d8:fa:1c:db:28:68:2a:f4:ac:72:8e:ea:
         29:5c:bb:53:fe:bf:5e:6e:40:19:9d:22:c4:ab:e4:66:47:19:
         03:05:a1:51:36:c2:2d:c9:c9:49:87:32:f0:02:7a:d1:5a:9c:
         b7:79:a1:90:2f:92:7a:9e:11:59:2c:e9:ec:42:c2:50:e5:fb:
         26:f4:fa:ea:ac:46:46:15:95:70:61:31:d6:5d:10:6b:22:b4:
         87:3a:93:e2:0e:fc:b8:a7:bf:56:11:44:fc:47:70:b0:4c:c9:
         95:4c:69:61:98:c1:3a:1c:9e:d9:d9:13:4d:53:c9:1f:ba:99:
         59:e9:69:e4:c4:6c:fe:a0:00:42:3d:4f:ed:a9:36:f5:af:4b:
         9e:83:ce:b6:a8:18:0b:b1:bc:3c:93:85:b3:1d:83:e0:2d:47:
         e4:f2:19:40:18:e8:b9:30:16:f0:8b:d4:7d:b4:38:0f:38:83:
         cb:a8:dd:3c:30:91:f2:b1:fa:f7:87:b6:ea:c8:10:e0:b1:dd:
         c6:96:5f:5f:0b:8d:8d:5c:2b:f2:98:1c:20:0c:cf:ba:0b:87:
         1a:77:a6:31:9c:f6:17:ba:bd:ca:ca:86:42:19:94:76:e8:23:
         9d:59:97:c4
-----BEGIN CERTIFICATE-----
MIIDXjCCAkagAwIBAgIBATANBgkqhkiG9w0BAQsFADASMRAwDgYDVQQDDAdkZXZj
ZXJ0MB4XDTIwMDUwNTEzMDkwOVoXDTIyMDgwODEzMDkwOVowFDESMBAGA1UEAwwJ
bG9jYWxob3N0MIIBIjANBgkqhkiG9w0BAQEFAAOCAQ8AMIIBCgKCAQEAtrrKGoDq
kO2np0wraDEiy67armq37eu5+87JmXduqWefbfIz4S93YCAbRQged4USOmHqhbAc
d20BTTRl4QdUgjFvAxvAjvaVx+JIlewmxSBQgReMTcCIF/DmAH/IHO/6lsx+wRPO
OOtkqS+qRL3uOaMKmg4zfLLms3GzRBtuZBZjU0bTxhgFesUmVlYEa0oC6VpHrATh
rhtN7pwCl5F1v5ZwIlAV8mGjZwXnWrbu8cYPUIX/nx5EcBlva8f7ZDMEuuKNsg4X
bUuW2VNw1MGxIb2uBo4DnRKUFSj4oRdo2kLwYRCiIPfvvG549iInsJ+5lWQEAsPR
JQSnHUoXNbLeOQIDAQABo4G8MIG5MAwGA1UdEwEB/wQCMAAwHQYDVR0OBBYEFE0b
+MhgldflejDTaKuGCejFTZrfMEIGA1UdIwQ7MDmAFM783eDLBbKBqrYhCsWtOuci
dF19oRakFDASMRAwDgYDVQQDDAdkZXZjZXJ0ggkA6huV0xoerG8wDgYDVR0PAQH/
BAQDAgWgMBMGA1UdJQQMMAoGCCsGAQUFBwMBMCEGA1UdEQQaMBiCCWxvY2FsaG9z
dIILKi5sb2NhbGhvc3QwDQYJKoZIhvcNAQELBQADggEBAJGvSZGdCrE7aJqAa8Oc
p6PtwGAq1D2J29j6HNsoaCr0rHKO6ilcu1P+v15uQBmdIsSr5GZHGQMFoVE2wi3J
yUmHMvACetFanLd5oZAvknqeEVks6exCwlDl+yb0+uqsRkYVlXBhMdZdEGsitIc6
k+IO/Linv1YRRPxHcLBMyZVMaWGYwTocntnZE01TyR+6mVnpaeTEbP6gAEI9T+2p
NvWvS56DzraoGAuxvDyThbMdg+AtR+TyGUAY6LkwFvCL1H20OA84g8uo3TwwkfKx
+veHturIEOCx3caWX18LjY1cK/KYHCAMz7oLhxp3pjGc9he6vcrKhkIZlHboI51Z
l8Q=
-----END CERTIFICATE-----
